; Function Attrs: mustprogress nounwind uwtable
define dso_local void @_ZN4llvm15LegalizerHelper15narrowScalarSrcERNS_12MachineInstrENS_3LLTEj(ptr nocapture noundef nonnull readonly align 8 dereferenceable(48) %0, ptr nocapture noundef nonnull readonly align 8 dereferenceable(70) %1, i64 %2, i32 noundef %3) local_unnamed_addr #0 align 2 {
  %5 = alloca %"class.llvm::DstOp", align 8
  %6 = alloca %"class.llvm::SrcOp", align 8
  %7 = getelementptr inbounds nuw i8, ptr %1, i64 32
  %8 = load ptr, ptr %7, align 8
  %9 = zext i32 %3 to i64
  %10 = getelementptr inbounds %"class.llvm::MachineOperand", ptr %8, i64 %9
  %11 = load ptr, ptr %0, align 8
  store i64 %2, ptr %5, align 8
  %12 = getelementptr inbounds nuw i8, ptr %5, i64 8
  store i32 0, ptr %12, align 8
  %13 = getelementptr inbounds nuw i8, ptr %10, i64 4
  %14 = load i32, ptr %13, align 4
  store i32 %14, ptr %6, align 8
  %15 = getelementptr inbounds nuw i8, ptr %6, i64 16
  store i32 0, ptr %15, align 8
  %16 = call { ptr, ptr } @_ZN4llvm16MachineIRBuilder10buildTruncERKNS_5DstOpERKNS_5SrcOpESt8optionalIjE(ptr noundef nonnull align 8 dereferenceable(88) %11, ptr noundef nonnull align 8 dereferenceable(12) %5, ptr noundef nonnull align 8 dereferenceable(20) %6, i64 0) #18
  %17 = extractvalue { ptr, ptr } %16, 1
  %18 = getelementptr inbounds nuw i8, ptr %17, i64 32
  %19 = load ptr, ptr %18, align 8
  %20 = getelementptr inbounds i8, ptr %19, i64 4
  %21 = load i32, ptr %20, align 4
  call void @_ZN4llvm14MachineOperand6setRegENS_8RegisterE(ptr noundef nonnull align 8 dereferenceable(32) %10, i32 %21) #18
  ret void
}